target datalayout = "e-m:e-p270:32:32-p271:32:32-p272:64:64-i64:64-i128:128-f80:128-n8:16:32:64-S128"
target triple = "x86_64-pc-linux-gnu"

%struct.hashfile = type { i32, i32, i32, %union.git_hash_ctx, i64, ptr, ptr, i32, i32, i64, ptr, ptr, ptr, i32 }
%union.git_hash_ctx = type { %struct.SHA1_CTX }
%struct.SHA1_CTX = type { i64, [5 x i32], [64 x i8], i32, i32, i32, i32, i32, ptr, [5 x i32], [5 x i32], [80 x i32], [80 x i32], [80 x [5 x i32]] }

; Function Attrs: nounwind uwtable
define dso_local void @free_hashfile(ptr noundef %0) #0 {
  %2 = alloca ptr, align 8
  store ptr %0, ptr %2, align 8, !tbaa !4
  %3 = load ptr, ptr %2, align 8, !tbaa !4
  %4 = getelementptr inbounds nuw %struct.hashfile, ptr %3, i32 0, i32 10
  %5 = load ptr, ptr %4, align 8, !tbaa !22
  call void @free(ptr noundef %5) #10
  %6 = load ptr, ptr %2, align 8, !tbaa !4
  %7 = getelementptr inbounds nuw %struct.hashfile, ptr %6, i32 0, i32 11
  %8 = load ptr, ptr %7, align 8, !tbaa !29
  call void @free(ptr noundef %8) #10
  %9 = load ptr, ptr %2, align 8, !tbaa !4
  call void @free(ptr noundef %9) #10
  ret void
}

; Function Attrs: nounwind uwtable
define dso_local void @discard_hashfile(ptr noundef %0) #0 {
  %2 = alloca ptr, align 8
  store ptr %0, ptr %2, align 8, !tbaa !4
  %3 = load ptr, ptr %2, align 8, !tbaa !4
  %4 = getelementptr inbounds nuw %struct.hashfile, ptr %3, i32 0, i32 1
  %5 = load i32, ptr %4, align 4, !tbaa !24
  %6 = icmp sle i32 0, %5
  br i1 %6, label %7, label %12

7:                                                ; preds = %1
  %8 = load ptr, ptr %2, align 8, !tbaa !4
  %9 = getelementptr inbounds nuw %struct.hashfile, ptr %8, i32 0, i32 1
  %10 = load i32, ptr %9, align 4, !tbaa !24
  %11 = call i32 @close(i32 noundef %10)
  br label %12

12:                                               ; preds = %7, %1
  %13 = load ptr, ptr %2, align 8, !tbaa !4
  %14 = getelementptr inbounds nuw %struct.hashfile, ptr %13, i32 0, i32 0
  %15 = load i32, ptr %14, align 8, !tbaa !25
  %16 = icmp sle i32 0, %15
  br i1 %16, label %17, label %22

17:                                               ; preds = %12
  %18 = load ptr, ptr %2, align 8, !tbaa !4
  %19 = getelementptr inbounds nuw %struct.hashfile, ptr %18, i32 0, i32 0
  %20 = load i32, ptr %19, align 8, !tbaa !25
  %21 = call i32 @close(i32 noundef %20)
  br label %22

22:                                               ; preds = %17, %12
  %23 = load ptr, ptr %2, align 8, !tbaa !4
  call void @free_hashfile(ptr noundef %23)
  ret void
}