; Function Attrs: nounwind uwtable
define dso_local void @discard_hashfile(ptr noundef captures(none) %0) local_unnamed_addr #0 {
  %2 = getelementptr inbounds nuw i8, ptr %0, i64 4
  %3 = load i32, ptr %2, align 4, !tbaa !20
  %4 = icmp sgt i32 %3, -1
  br i1 %4, label %5, label %7

5:                                                ; preds = %1
  %6 = tail call i32 @close(i32 noundef %3) #13
  br label %7

7:                                                ; preds = %5, %1
  %8 = load i32, ptr %0, align 8, !tbaa !23
  %9 = icmp sgt i32 %8, -1
  br i1 %9, label %10, label %12

10:                                               ; preds = %7
  %11 = tail call i32 @close(i32 noundef %8) #13
  br label %12

12:                                               ; preds = %10, %7
  %13 = getelementptr inbounds nuw i8, ptr %0, i64 2456
  %14 = load ptr, ptr %13, align 8, !tbaa !19
  tail call void @free(ptr noundef %14) #13
  %15 = getelementptr inbounds nuw i8, ptr %0, i64 2464
  %16 = load ptr, ptr %15, align 8, !tbaa !21
  tail call void @free(ptr noundef %16) #13
  tail call void @free(ptr noundef nonnull %0) #13
  ret void
}